
ESP_8266_client_MQTT.elf:     file format elf32-avr

Sections:
Idx Name          Size      VMA       LMA       File off  Algn
  0 .text         00000568  00000000  00000000  00000094  2**1
                  CONTENTS, ALLOC, LOAD, READONLY, CODE
  1 .data         00000120  00800060  00000568  000005fc  2**0
                  CONTENTS, ALLOC, LOAD, DATA
  2 .bss          00000065  00800180  00800180  0000071c  2**0
                  ALLOC

Disassembly of section .text:

00000000 <__vectors>:
   0:	0c 94 2a 00 	jmp	0x54	; 0x54 <__ctors_end>
   4:	0c 94 47 00 	jmp	0x8e	; 0x8e <__bad_interrupt>
   8:	0c 94 47 00 	jmp	0x8e	; 0x8e <__bad_interrupt>
   c:	0c 94 47 00 	jmp	0x8e	; 0x8e <__bad_interrupt>
  10:	0c 94 47 00 	jmp	0x8e	; 0x8e <__bad_interrupt>
  14:	0c 94 47 00 	jmp	0x8e	; 0x8e <__bad_interrupt>
  18:	0c 94 47 00 	jmp	0x8e	; 0x8e <__bad_interrupt>
  1c:	0c 94 47 00 	jmp	0x8e	; 0x8e <__bad_interrupt>
  20:	0c 94 47 00 	jmp	0x8e	; 0x8e <__bad_interrupt>
  24:	0c 94 47 00 	jmp	0x8e	; 0x8e <__bad_interrupt>
  28:	0c 94 47 00 	jmp	0x8e	; 0x8e <__bad_interrupt>
  2c:	0c 94 47 00 	jmp	0x8e	; 0x8e <__bad_interrupt>
  30:	0c 94 47 00 	jmp	0x8e	; 0x8e <__bad_interrupt>
  34:	0c 94 87 00 	jmp	0x10e	; 0x10e <__vector_13>
  38:	0c 94 47 00 	jmp	0x8e	; 0x8e <__bad_interrupt>
  3c:	0c 94 47 00 	jmp	0x8e	; 0x8e <__bad_interrupt>
  40:	0c 94 47 00 	jmp	0x8e	; 0x8e <__bad_interrupt>
  44:	0c 94 47 00 	jmp	0x8e	; 0x8e <__bad_interrupt>
  48:	0c 94 47 00 	jmp	0x8e	; 0x8e <__bad_interrupt>
  4c:	0c 94 47 00 	jmp	0x8e	; 0x8e <__bad_interrupt>
  50:	0c 94 47 00 	jmp	0x8e	; 0x8e <__bad_interrupt>

00000054 <__ctors_end>:
  54:	11 24       	eor	r1, r1
  56:	1f be       	out	0x3f, r1	; 63
  58:	cf e5       	ldi	r28, 0x5F	; 95
  5a:	d8 e0       	ldi	r29, 0x08	; 8
  5c:	de bf       	out	0x3e, r29	; 62
  5e:	cd bf       	out	0x3d, r28	; 61

00000060 <__do_copy_data>:
  60:	11 e0       	ldi	r17, 0x01	; 1
  62:	a0 e6       	ldi	r26, 0x60	; 96
  64:	b0 e0       	ldi	r27, 0x00	; 0
  66:	e8 e6       	ldi	r30, 0x68	; 104
  68:	f5 e0       	ldi	r31, 0x05	; 5
  6a:	02 c0       	rjmp	.+4      	; 0x70 <.do_copy_data_start>

0000006c <.do_copy_data_loop>:
  6c:	05 90       	lpm	r0, Z+
  6e:	0d 92       	st	X+, r0

00000070 <.do_copy_data_start>:
  70:	a0 38       	cpi	r26, 0x80	; 128
  72:	b1 07       	cpc	r27, r17
  74:	d9 f7       	brne	.-10     	; 0x6c <.do_copy_data_loop>

00000076 <__do_clear_bss>:
  76:	11 e0       	ldi	r17, 0x01	; 1
  78:	a0 e8       	ldi	r26, 0x80	; 128
  7a:	b1 e0       	ldi	r27, 0x01	; 1
  7c:	01 c0       	rjmp	.+2      	; 0x80 <.do_clear_bss_start>

0000007e <.do_clear_bss_loop>:
  7e:	1d 92       	st	X+, r1

00000080 <.do_clear_bss_start>:
  80:	a5 3e       	cpi	r26, 0xE5	; 229
  82:	b1 07       	cpc	r27, r17
  84:	e1 f7       	brne	.-8      	; 0x7e <.do_clear_bss_loop>
  86:	0e 94 e6 00 	call	0x1cc	; 0x1cc <main>
  8a:	0c 94 b2 02 	jmp	0x564	; 0x564 <_exit>

0000008e <__bad_interrupt>:
  8e:	0c 94 00 00 	jmp	0	; 0x0 <__vectors>

00000092 <init_UART>:
  92:	82 e0       	ldi	r24, 0x02	; 2
  94:	8b b9       	out	0x0b, r24	; 11
  96:	88 e9       	ldi	r24, 0x98	; 152
  98:	8a b9       	out	0x0a, r24	; 10
  9a:	86 e8       	ldi	r24, 0x86	; 134
  9c:	80 bd       	out	0x20, r24	; 32
  9e:	88 e0       	ldi	r24, 0x08	; 8
  a0:	89 b9       	out	0x09, r24	; 9
  a2:	10 bc       	out	0x20, r1	; 32
  a4:	08 95       	ret

000000a6 <UART_SendChar>:
  a6:	5d 9b       	sbis	0x0b, 5	; 11
  a8:	fe cf       	rjmp	.-4      	; 0xa6 <UART_SendChar>
  aa:	8c b9       	out	0x0c, r24	; 12
  ac:	08 95       	ret

000000ae <UART_getChar>:
  ae:	5f 9b       	sbis	0x0b, 7	; 11
  b0:	fe cf       	rjmp	.-4      	; 0xae <UART_getChar>
  b2:	8c b1       	in	r24, 0x0c	; 12
  b4:	08 95       	ret

000000b6 <UART_SEND_string>:
  b6:	fc 01       	movw	r30, r24
  b8:	04 c0       	rjmp	.+8      	; 0xc2 <UART_SEND_string+0xc>
  ba:	5d 9b       	sbis	0x0b, 5	; 11
  bc:	fe cf       	rjmp	.-4      	; 0xba <UART_SEND_string+0x4>
  be:	8c b9       	out	0x0c, r24	; 12
  c0:	31 96       	adiw	r30, 0x01	; 1
  c2:	80 81       	ld	r24, Z
  c4:	88 23       	and	r24, r24
  c6:	c9 f7       	brne	.-14     	; 0xba <UART_SEND_string+0x4>
  c8:	08 95       	ret

000000ca <UART_SEND_number>:
  ca:	0f 93       	push	r16
  cc:	1f 93       	push	r17
  ce:	df 93       	push	r29
  d0:	cf 93       	push	r28
  d2:	cd b7       	in	r28, 0x3d	; 61
  d4:	de b7       	in	r29, 0x3e	; 62
  d6:	64 97       	sbiw	r28, 0x14	; 20
  d8:	0f b6       	in	r0, 0x3f	; 63
  da:	f8 94       	cli
  dc:	de bf       	out	0x3e, r29	; 62
  de:	0f be       	out	0x3f, r0	; 63
  e0:	cd bf       	out	0x3d, r28	; 61
  e2:	8e 01       	movw	r16, r28
  e4:	0f 5f       	subi	r16, 0xFF	; 255
  e6:	1f 4f       	sbci	r17, 0xFF	; 255
  e8:	b8 01       	movw	r22, r16
  ea:	4a e0       	ldi	r20, 0x0A	; 10
  ec:	50 e0       	ldi	r21, 0x00	; 0
  ee:	0e 94 6d 02 	call	0x4da	; 0x4da <itoa>
  f2:	c8 01       	movw	r24, r16
  f4:	0e 94 5b 00 	call	0xb6	; 0xb6 <UART_SEND_string>
  f8:	64 96       	adiw	r28, 0x14	; 20
  fa:	0f b6       	in	r0, 0x3f	; 63
  fc:	f8 94       	cli
  fe:	de bf       	out	0x3e, r29	; 62
 100:	0f be       	out	0x3f, r0	; 63
 102:	cd bf       	out	0x3d, r28	; 61
 104:	cf 91       	pop	r28
 106:	df 91       	pop	r29
 108:	1f 91       	pop	r17
 10a:	0f 91       	pop	r16
 10c:	08 95       	ret

0000010e <__vector_13>:
 10e:	1f 92       	push	r1
 110:	0f 92       	push	r0
 112:	0f b6       	in	r0, 0x3f	; 63
 114:	0f 92       	push	r0
 116:	11 24       	eor	r1, r1
 118:	2f 93       	push	r18
 11a:	8f 93       	push	r24
 11c:	9f 93       	push	r25
 11e:	ef 93       	push	r30
 120:	ff 93       	push	r31
 122:	2f b7       	in	r18, 0x3f	; 63
 124:	f8 94       	cli
 126:	80 91 80 01 	lds	r24, 0x0180
 12a:	9c b1       	in	r25, 0x0c	; 12
 12c:	e8 2f       	mov	r30, r24
 12e:	f0 e0       	ldi	r31, 0x00	; 0
 130:	ef 57       	subi	r30, 0x7F	; 127
 132:	fe 4f       	sbci	r31, 0xFE	; 254
 134:	90 83       	st	Z, r25
 136:	8f 5f       	subi	r24, 0xFF	; 255
 138:	80 93 80 01 	sts	0x0180, r24
 13c:	84 36       	cpi	r24, 0x64	; 100
 13e:	11 f4       	brne	.+4      	; 0x144 <__vector_13+0x36>
 140:	10 92 80 01 	sts	0x0180, r1
 144:	2f bf       	out	0x3f, r18	; 63
 146:	ff 91       	pop	r31
 148:	ef 91       	pop	r30
 14a:	9f 91       	pop	r25
 14c:	8f 91       	pop	r24
 14e:	2f 91       	pop	r18
 150:	0f 90       	pop	r0
 152:	0f be       	out	0x3f, r0	; 63
 154:	0f 90       	pop	r0
 156:	1f 90       	pop	r1
 158:	18 95       	reti

0000015a <Check_Respond>:
 15a:	ff 92       	push	r15
 15c:	0f 93       	push	r16
 15e:	1f 93       	push	r17
 160:	cf 93       	push	r28
 162:	df 93       	push	r29
 164:	8c 01       	movw	r16, r24
 166:	f6 2e       	mov	r15, r22
 168:	10 92 80 01 	sts	0x0180, r1
 16c:	80 e6       	ldi	r24, 0x60	; 96
 16e:	90 e0       	ldi	r25, 0x00	; 0
 170:	0e 94 e2 01 	call	0x3c4	; 0x3c4 <uart_TX_string>
 174:	c1 e8       	ldi	r28, 0x81	; 129
 176:	d1 e0       	ldi	r29, 0x01	; 1
 178:	ce 01       	movw	r24, r28
 17a:	0e 94 e2 01 	call	0x3c4	; 0x3c4 <uart_TX_string>
 17e:	8a e6       	ldi	r24, 0x6A	; 106
 180:	90 e0       	ldi	r25, 0x00	; 0
 182:	0e 94 e2 01 	call	0x3c4	; 0x3c4 <uart_TX_string>
 186:	ce 01       	movw	r24, r28
 188:	b8 01       	movw	r22, r16
 18a:	4f 2d       	mov	r20, r15
 18c:	50 e0       	ldi	r21, 0x00	; 0
 18e:	0e 94 5f 02 	call	0x4be	; 0x4be <strncmp>
 192:	00 97       	sbiw	r24, 0x00	; 0
 194:	69 f4       	brne	.+26     	; 0x1b0 <Check_Respond+0x56>
 196:	80 e7       	ldi	r24, 0x70	; 112
 198:	90 e0       	ldi	r25, 0x00	; 0
 19a:	0e 94 e2 01 	call	0x3c4	; 0x3c4 <uart_TX_string>
 19e:	ce 01       	movw	r24, r28
 1a0:	60 e0       	ldi	r22, 0x00	; 0
 1a2:	70 e0       	ldi	r23, 0x00	; 0
 1a4:	4f 2d       	mov	r20, r15
 1a6:	50 e0       	ldi	r21, 0x00	; 0
 1a8:	0e 94 58 02 	call	0x4b0	; 0x4b0 <memset>
 1ac:	81 e0       	ldi	r24, 0x01	; 1
 1ae:	08 c0       	rjmp	.+16     	; 0x1c0 <Check_Respond+0x66>
 1b0:	ce 01       	movw	r24, r28
 1b2:	60 e0       	ldi	r22, 0x00	; 0
 1b4:	70 e0       	ldi	r23, 0x00	; 0
 1b6:	4f 2d       	mov	r20, r15
 1b8:	50 e0       	ldi	r21, 0x00	; 0
 1ba:	0e 94 58 02 	call	0x4b0	; 0x4b0 <memset>
 1be:	80 e0       	ldi	r24, 0x00	; 0
 1c0:	df 91       	pop	r29
 1c2:	cf 91       	pop	r28
 1c4:	1f 91       	pop	r17
 1c6:	0f 91       	pop	r16
 1c8:	ff 90       	pop	r15
 1ca:	08 95       	ret

000001cc <main>:
 1cc:	80 e1       	ldi	r24, 0x10	; 16
 1ce:	81 bb       	out	0x11, r24	; 17
 1d0:	0e 94 49 00 	call	0x92	; 0x92 <init_UART>
 1d4:	0e 94 bf 01 	call	0x37e	; 0x37e <uart_init>
 1d8:	78 94       	sei
 1da:	82 e8       	ldi	r24, 0x82	; 130
 1dc:	90 e0       	ldi	r25, 0x00	; 0
 1de:	0e 94 5b 00 	call	0xb6	; 0xb6 <UART_SEND_string>
 1e2:	80 e1       	ldi	r24, 0x10	; 16
 1e4:	97 e2       	ldi	r25, 0x27	; 39
 1e6:	28 ec       	ldi	r18, 0xC8	; 200
 1e8:	30 e0       	ldi	r19, 0x00	; 0
 1ea:	f9 01       	movw	r30, r18
 1ec:	31 97       	sbiw	r30, 0x01	; 1
 1ee:	f1 f7       	brne	.-4      	; 0x1ec <main+0x20>
 1f0:	01 97       	sbiw	r24, 0x01	; 1
 1f2:	d9 f7       	brne	.-10     	; 0x1ea <main+0x1e>
 1f4:	89 e8       	ldi	r24, 0x89	; 137
 1f6:	90 e0       	ldi	r25, 0x00	; 0
 1f8:	0e 94 5b 00 	call	0xb6	; 0xb6 <UART_SEND_string>
 1fc:	80 e3       	ldi	r24, 0x30	; 48
 1fe:	95 e7       	ldi	r25, 0x75	; 117
 200:	28 ec       	ldi	r18, 0xC8	; 200
 202:	30 e0       	ldi	r19, 0x00	; 0
 204:	f9 01       	movw	r30, r18
 206:	31 97       	sbiw	r30, 0x01	; 1
 208:	f1 f7       	brne	.-4      	; 0x206 <main+0x3a>
 20a:	01 97       	sbiw	r24, 0x01	; 1
 20c:	d9 f7       	brne	.-10     	; 0x204 <main+0x38>
 20e:	87 e9       	ldi	r24, 0x97	; 151
 210:	90 e0       	ldi	r25, 0x00	; 0
 212:	0e 94 5b 00 	call	0xb6	; 0xb6 <UART_SEND_string>
 216:	80 e3       	ldi	r24, 0x30	; 48
 218:	95 e7       	ldi	r25, 0x75	; 117
 21a:	28 ec       	ldi	r18, 0xC8	; 200
 21c:	30 e0       	ldi	r19, 0x00	; 0
 21e:	f9 01       	movw	r30, r18
 220:	31 97       	sbiw	r30, 0x01	; 1
 222:	f1 f7       	brne	.-4      	; 0x220 <main+0x54>
 224:	01 97       	sbiw	r24, 0x01	; 1
 226:	d9 f7       	brne	.-10     	; 0x21e <main+0x52>
 228:	85 ea       	ldi	r24, 0xA5	; 165
 22a:	90 e0       	ldi	r25, 0x00	; 0
 22c:	0e 94 5b 00 	call	0xb6	; 0xb6 <UART_SEND_string>
 230:	80 e3       	ldi	r24, 0x30	; 48
 232:	95 e7       	ldi	r25, 0x75	; 117
 234:	28 ec       	ldi	r18, 0xC8	; 200
 236:	30 e0       	ldi	r19, 0x00	; 0
 238:	f9 01       	movw	r30, r18
 23a:	31 97       	sbiw	r30, 0x01	; 1
 23c:	f1 f7       	brne	.-4      	; 0x23a <main+0x6e>
 23e:	01 97       	sbiw	r24, 0x01	; 1
 240:	d9 f7       	brne	.-10     	; 0x238 <main+0x6c>
 242:	84 eb       	ldi	r24, 0xB4	; 180
 244:	90 e0       	ldi	r25, 0x00	; 0
 246:	0e 94 5b 00 	call	0xb6	; 0xb6 <UART_SEND_string>
 24a:	80 e3       	ldi	r24, 0x30	; 48
 24c:	95 e7       	ldi	r25, 0x75	; 117
 24e:	28 ec       	ldi	r18, 0xC8	; 200
 250:	30 e0       	ldi	r19, 0x00	; 0
 252:	f9 01       	movw	r30, r18
 254:	31 97       	sbiw	r30, 0x01	; 1
 256:	f1 f7       	brne	.-4      	; 0x254 <main+0x88>
 258:	01 97       	sbiw	r24, 0x01	; 1
 25a:	d9 f7       	brne	.-10     	; 0x252 <main+0x86>
 25c:	80 e3       	ldi	r24, 0x30	; 48
 25e:	95 e7       	ldi	r25, 0x75	; 117
 260:	28 ec       	ldi	r18, 0xC8	; 200
 262:	30 e0       	ldi	r19, 0x00	; 0
 264:	f9 01       	movw	r30, r18
 266:	31 97       	sbiw	r30, 0x01	; 1
 268:	f1 f7       	brne	.-4      	; 0x266 <main+0x9a>
 26a:	01 97       	sbiw	r24, 0x01	; 1
 26c:	d9 f7       	brne	.-10     	; 0x264 <main+0x98>
 26e:	80 e3       	ldi	r24, 0x30	; 48
 270:	95 e7       	ldi	r25, 0x75	; 117
 272:	28 ec       	ldi	r18, 0xC8	; 200
 274:	30 e0       	ldi	r19, 0x00	; 0
 276:	f9 01       	movw	r30, r18
 278:	31 97       	sbiw	r30, 0x01	; 1
 27a:	f1 f7       	brne	.-4      	; 0x278 <main+0xac>
 27c:	01 97       	sbiw	r24, 0x01	; 1
 27e:	d9 f7       	brne	.-10     	; 0x276 <main+0xaa>
 280:	80 e3       	ldi	r24, 0x30	; 48
 282:	95 e7       	ldi	r25, 0x75	; 117
 284:	28 ec       	ldi	r18, 0xC8	; 200
 286:	30 e0       	ldi	r19, 0x00	; 0
 288:	f9 01       	movw	r30, r18
 28a:	31 97       	sbiw	r30, 0x01	; 1
 28c:	f1 f7       	brne	.-4      	; 0x28a <main+0xbe>
 28e:	01 97       	sbiw	r24, 0x01	; 1
 290:	d9 f7       	brne	.-10     	; 0x288 <main+0xbc>
 292:	80 e3       	ldi	r24, 0x30	; 48
 294:	95 e7       	ldi	r25, 0x75	; 117
 296:	28 ec       	ldi	r18, 0xC8	; 200
 298:	30 e0       	ldi	r19, 0x00	; 0
 29a:	f9 01       	movw	r30, r18
 29c:	31 97       	sbiw	r30, 0x01	; 1
 29e:	f1 f7       	brne	.-4      	; 0x29c <main+0xd0>
 2a0:	01 97       	sbiw	r24, 0x01	; 1
 2a2:	d9 f7       	brne	.-10     	; 0x29a <main+0xce>
 2a4:	82 ee       	ldi	r24, 0xE2	; 226
 2a6:	90 e0       	ldi	r25, 0x00	; 0
 2a8:	0e 94 5b 00 	call	0xb6	; 0xb6 <UART_SEND_string>
 2ac:	80 e3       	ldi	r24, 0x30	; 48
 2ae:	95 e7       	ldi	r25, 0x75	; 117
 2b0:	28 ec       	ldi	r18, 0xC8	; 200
 2b2:	30 e0       	ldi	r19, 0x00	; 0
 2b4:	f9 01       	movw	r30, r18
 2b6:	31 97       	sbiw	r30, 0x01	; 1
 2b8:	f1 f7       	brne	.-4      	; 0x2b6 <main+0xea>
 2ba:	01 97       	sbiw	r24, 0x01	; 1
 2bc:	d9 f7       	brne	.-10     	; 0x2b4 <main+0xe8>
 2be:	81 e1       	ldi	r24, 0x11	; 17
 2c0:	91 e0       	ldi	r25, 0x01	; 1
 2c2:	0e 94 5b 00 	call	0xb6	; 0xb6 <UART_SEND_string>
 2c6:	80 e1       	ldi	r24, 0x10	; 16
 2c8:	97 e2       	ldi	r25, 0x27	; 39
 2ca:	28 ec       	ldi	r18, 0xC8	; 200
 2cc:	30 e0       	ldi	r19, 0x00	; 0
 2ce:	f9 01       	movw	r30, r18
 2d0:	31 97       	sbiw	r30, 0x01	; 1
 2d2:	f1 f7       	brne	.-4      	; 0x2d0 <main+0x104>
 2d4:	01 97       	sbiw	r24, 0x01	; 1
 2d6:	d9 f7       	brne	.-10     	; 0x2ce <main+0x102>
 2d8:	80 e1       	ldi	r24, 0x10	; 16
 2da:	0e 94 53 00 	call	0xa6	; 0xa6 <UART_SendChar>
 2de:	8c e1       	ldi	r24, 0x1C	; 28
 2e0:	0e 94 53 00 	call	0xa6	; 0xa6 <UART_SendChar>
 2e4:	80 e0       	ldi	r24, 0x00	; 0
 2e6:	0e 94 53 00 	call	0xa6	; 0xa6 <UART_SendChar>
 2ea:	84 e0       	ldi	r24, 0x04	; 4
 2ec:	0e 94 53 00 	call	0xa6	; 0xa6 <UART_SendChar>
 2f0:	81 e2       	ldi	r24, 0x21	; 33
 2f2:	91 e0       	ldi	r25, 0x01	; 1
 2f4:	0e 94 5b 00 	call	0xb6	; 0xb6 <UART_SEND_string>
 2f8:	84 e0       	ldi	r24, 0x04	; 4
 2fa:	0e 94 53 00 	call	0xa6	; 0xa6 <UART_SendChar>
 2fe:	82 e0       	ldi	r24, 0x02	; 2
 300:	0e 94 53 00 	call	0xa6	; 0xa6 <UART_SendChar>
 304:	80 e0       	ldi	r24, 0x00	; 0
 306:	0e 94 53 00 	call	0xa6	; 0xa6 <UART_SendChar>
 30a:	8c e3       	ldi	r24, 0x3C	; 60
 30c:	0e 94 53 00 	call	0xa6	; 0xa6 <UART_SendChar>
 310:	80 e0       	ldi	r24, 0x00	; 0
 312:	0e 94 53 00 	call	0xa6	; 0xa6 <UART_SendChar>
 316:	80 e1       	ldi	r24, 0x10	; 16
 318:	0e 94 53 00 	call	0xa6	; 0xa6 <UART_SendChar>
 31c:	86 e2       	ldi	r24, 0x26	; 38
 31e:	91 e0       	ldi	r25, 0x01	; 1
 320:	0e 94 5b 00 	call	0xb6	; 0xb6 <UART_SEND_string>
 324:	80 e1       	ldi	r24, 0x10	; 16
 326:	97 e2       	ldi	r25, 0x27	; 39
 328:	28 ec       	ldi	r18, 0xC8	; 200
 32a:	30 e0       	ldi	r19, 0x00	; 0
 32c:	f9 01       	movw	r30, r18
 32e:	31 97       	sbiw	r30, 0x01	; 1
 330:	f1 f7       	brne	.-4      	; 0x32e <main+0x162>
 332:	01 97       	sbiw	r24, 0x01	; 1
 334:	d9 f7       	brne	.-10     	; 0x32c <main+0x160>
 336:	87 e3       	ldi	r24, 0x37	; 55
 338:	91 e0       	ldi	r25, 0x01	; 1
 33a:	0e 94 5b 00 	call	0xb6	; 0xb6 <UART_SEND_string>
 33e:	80 e1       	ldi	r24, 0x10	; 16
 340:	97 e2       	ldi	r25, 0x27	; 39
 342:	28 ec       	ldi	r18, 0xC8	; 200
 344:	30 e0       	ldi	r19, 0x00	; 0
 346:	f9 01       	movw	r30, r18
 348:	31 97       	sbiw	r30, 0x01	; 1
 34a:	f1 f7       	brne	.-4      	; 0x348 <main+0x17c>
 34c:	01 97       	sbiw	r24, 0x01	; 1
 34e:	d9 f7       	brne	.-10     	; 0x346 <main+0x17a>
 350:	80 e3       	ldi	r24, 0x30	; 48
 352:	0e 94 53 00 	call	0xa6	; 0xa6 <UART_SendChar>
 356:	89 e3       	ldi	r24, 0x39	; 57
 358:	0e 94 53 00 	call	0xa6	; 0xa6 <UART_SendChar>
 35c:	80 e0       	ldi	r24, 0x00	; 0
 35e:	0e 94 53 00 	call	0xa6	; 0xa6 <UART_SendChar>
 362:	86 e3       	ldi	r24, 0x36	; 54
 364:	0e 94 53 00 	call	0xa6	; 0xa6 <UART_SendChar>
 368:	87 e4       	ldi	r24, 0x47	; 71
 36a:	91 e0       	ldi	r25, 0x01	; 1
 36c:	0e 94 5b 00 	call	0xb6	; 0xb6 <UART_SEND_string>
 370:	8e e7       	ldi	r24, 0x7E	; 126
 372:	91 e0       	ldi	r25, 0x01	; 1
 374:	0e 94 5b 00 	call	0xb6	; 0xb6 <UART_SEND_string>
 378:	80 e0       	ldi	r24, 0x00	; 0
 37a:	90 e0       	ldi	r25, 0x00	; 0
 37c:	08 95       	ret

0000037e <uart_init>:
 37e:	d1 9a       	sbi	0x1a, 1	; 26
 380:	d9 9a       	sbi	0x1b, 1	; 27
 382:	08 95       	ret

00000384 <uart_tx>:
 384:	58 2f       	mov	r21, r24
 386:	d9 98       	cbi	0x1b, 1	; 27
 388:	80 ea       	ldi	r24, 0xA0	; 160
 38a:	91 e0       	ldi	r25, 0x01	; 1
 38c:	01 97       	sbiw	r24, 0x01	; 1
 38e:	f1 f7       	brne	.-4      	; 0x38c <uart_tx+0x8>
 390:	41 e0       	ldi	r20, 0x01	; 1
 392:	20 e0       	ldi	r18, 0x00	; 0
 394:	30 e0       	ldi	r19, 0x00	; 0
 396:	60 ea       	ldi	r22, 0xA0	; 160
 398:	71 e0       	ldi	r23, 0x01	; 1
 39a:	84 2f       	mov	r24, r20
 39c:	85 23       	and	r24, r21
 39e:	11 f0       	breq	.+4      	; 0x3a4 <uart_tx+0x20>
 3a0:	d9 9a       	sbi	0x1b, 1	; 27
 3a2:	01 c0       	rjmp	.+2      	; 0x3a6 <uart_tx+0x22>
 3a4:	d9 98       	cbi	0x1b, 1	; 27
 3a6:	cb 01       	movw	r24, r22
 3a8:	01 97       	sbiw	r24, 0x01	; 1
 3aa:	f1 f7       	brne	.-4      	; 0x3a8 <uart_tx+0x24>
 3ac:	44 0f       	add	r20, r20
 3ae:	2f 5f       	subi	r18, 0xFF	; 255
 3b0:	3f 4f       	sbci	r19, 0xFF	; 255
 3b2:	28 30       	cpi	r18, 0x08	; 8
 3b4:	31 05       	cpc	r19, r1
 3b6:	89 f7       	brne	.-30     	; 0x39a <uart_tx+0x16>
 3b8:	d9 9a       	sbi	0x1b, 1	; 27
 3ba:	80 ea       	ldi	r24, 0xA0	; 160
 3bc:	91 e0       	ldi	r25, 0x01	; 1
 3be:	01 97       	sbiw	r24, 0x01	; 1
 3c0:	f1 f7       	brne	.-4      	; 0x3be <uart_tx+0x3a>
 3c2:	08 95       	ret

000003c4 <uart_TX_string>:
 3c4:	1f 93       	push	r17
 3c6:	cf 93       	push	r28
 3c8:	df 93       	push	r29
 3ca:	ec 01       	movw	r28, r24
 3cc:	10 e0       	ldi	r17, 0x00	; 0
 3ce:	03 c0       	rjmp	.+6      	; 0x3d6 <uart_TX_string+0x12>
 3d0:	0e 94 c2 01 	call	0x384	; 0x384 <uart_tx>
 3d4:	1f 5f       	subi	r17, 0xFF	; 255
 3d6:	fe 01       	movw	r30, r28
 3d8:	e1 0f       	add	r30, r17
 3da:	f1 1d       	adc	r31, r1
 3dc:	80 81       	ld	r24, Z
 3de:	88 23       	and	r24, r24
 3e0:	b9 f7       	brne	.-18     	; 0x3d0 <uart_TX_string+0xc>
 3e2:	df 91       	pop	r29
 3e4:	cf 91       	pop	r28
 3e6:	1f 91       	pop	r17
 3e8:	08 95       	ret

000003ea <uart_tx_str>:
 3ea:	cf 93       	push	r28
 3ec:	df 93       	push	r29
 3ee:	ec 01       	movw	r28, r24
 3f0:	fc 01       	movw	r30, r24
 3f2:	84 91       	lpm	r24, Z+
 3f4:	05 c0       	rjmp	.+10     	; 0x400 <uart_tx_str+0x16>
 3f6:	21 96       	adiw	r28, 0x01	; 1
 3f8:	0e 94 c2 01 	call	0x384	; 0x384 <uart_tx>
 3fc:	fe 01       	movw	r30, r28
 3fe:	84 91       	lpm	r24, Z+
 400:	88 23       	and	r24, r24
 402:	c9 f7       	brne	.-14     	; 0x3f6 <uart_tx_str+0xc>
 404:	df 91       	pop	r29
 406:	cf 91       	pop	r28
 408:	08 95       	ret

0000040a <uart_tx_hex>:
 40a:	8a 30       	cpi	r24, 0x0A	; 10
 40c:	10 f0       	brcs	.+4      	; 0x412 <uart_tx_hex+0x8>
 40e:	89 5a       	subi	r24, 0xA9	; 169
 410:	01 c0       	rjmp	.+2      	; 0x414 <uart_tx_hex+0xa>
 412:	80 5d       	subi	r24, 0xD0	; 208
 414:	0e 94 c2 01 	call	0x384	; 0x384 <uart_tx>
 418:	08 95       	ret

0000041a <uart_tx_hex_byte>:
 41a:	1f 93       	push	r17
 41c:	18 2f       	mov	r17, r24
 41e:	82 95       	swap	r24
 420:	8f 70       	andi	r24, 0x0F	; 15
 422:	0e 94 05 02 	call	0x40a	; 0x40a <uart_tx_hex>
 426:	81 2f       	mov	r24, r17
 428:	8f 70       	andi	r24, 0x0F	; 15
 42a:	0e 94 05 02 	call	0x40a	; 0x40a <uart_tx_hex>
 42e:	1f 91       	pop	r17
 430:	08 95       	ret

00000432 <uart_tx_hex_word>:
 432:	1f 93       	push	r17
 434:	18 2f       	mov	r17, r24
 436:	89 2f       	mov	r24, r25
 438:	0e 94 0d 02 	call	0x41a	; 0x41a <uart_tx_hex_byte>
 43c:	81 2f       	mov	r24, r17
 43e:	0e 94 0d 02 	call	0x41a	; 0x41a <uart_tx_hex_byte>
 442:	1f 91       	pop	r17
 444:	08 95       	ret

00000446 <uart_tx_hex_lword>:
 446:	ef 92       	push	r14
 448:	ff 92       	push	r15
 44a:	0f 93       	push	r16
 44c:	1f 93       	push	r17
 44e:	7b 01       	movw	r14, r22
 450:	8c 01       	movw	r16, r24
 452:	c8 01       	movw	r24, r16
 454:	aa 27       	eor	r26, r26
 456:	bb 27       	eor	r27, r27
 458:	0e 94 19 02 	call	0x432	; 0x432 <uart_tx_hex_word>
 45c:	c7 01       	movw	r24, r14
 45e:	0e 94 19 02 	call	0x432	; 0x432 <uart_tx_hex_word>
 462:	1f 91       	pop	r17
 464:	0f 91       	pop	r16
 466:	ff 90       	pop	r15
 468:	ef 90       	pop	r14
 46a:	08 95       	ret

0000046c <uart_TX_number>:
 46c:	0f 93       	push	r16
 46e:	1f 93       	push	r17
 470:	df 93       	push	r29
 472:	cf 93       	push	r28
 474:	cd b7       	in	r28, 0x3d	; 61
 476:	de b7       	in	r29, 0x3e	; 62
 478:	64 97       	sbiw	r28, 0x14	; 20
 47a:	0f b6       	in	r0, 0x3f	; 63
 47c:	f8 94       	cli
 47e:	de bf       	out	0x3e, r29	; 62
 480:	0f be       	out	0x3f, r0	; 63
 482:	cd bf       	out	0x3d, r28	; 61
 484:	8e 01       	movw	r16, r28
 486:	0f 5f       	subi	r16, 0xFF	; 255
 488:	1f 4f       	sbci	r17, 0xFF	; 255
 48a:	b8 01       	movw	r22, r16
 48c:	4a e0       	ldi	r20, 0x0A	; 10
 48e:	50 e0       	ldi	r21, 0x00	; 0
 490:	0e 94 6d 02 	call	0x4da	; 0x4da <itoa>
 494:	c8 01       	movw	r24, r16
 496:	0e 94 e2 01 	call	0x3c4	; 0x3c4 <uart_TX_string>
 49a:	64 96       	adiw	r28, 0x14	; 20
 49c:	0f b6       	in	r0, 0x3f	; 63
 49e:	f8 94       	cli
 4a0:	de bf       	out	0x3e, r29	; 62
 4a2:	0f be       	out	0x3f, r0	; 63
 4a4:	cd bf       	out	0x3d, r28	; 61
 4a6:	cf 91       	pop	r28
 4a8:	df 91       	pop	r29
 4aa:	1f 91       	pop	r17
 4ac:	0f 91       	pop	r16
 4ae:	08 95       	ret

000004b0 <memset>:
 4b0:	dc 01       	movw	r26, r24
 4b2:	01 c0       	rjmp	.+2      	; 0x4b6 <memset+0x6>
 4b4:	6d 93       	st	X+, r22
 4b6:	41 50       	subi	r20, 0x01	; 1
 4b8:	50 40       	sbci	r21, 0x00	; 0
 4ba:	e0 f7       	brcc	.-8      	; 0x4b4 <memset+0x4>
 4bc:	08 95       	ret

000004be <strncmp>:
 4be:	fb 01       	movw	r30, r22
 4c0:	dc 01       	movw	r26, r24
 4c2:	41 50       	subi	r20, 0x01	; 1
 4c4:	50 40       	sbci	r21, 0x00	; 0
 4c6:	30 f0       	brcs	.+12     	; 0x4d4 <strncmp+0x16>
 4c8:	8d 91       	ld	r24, X+
 4ca:	01 90       	ld	r0, Z+
 4cc:	80 19       	sub	r24, r0
 4ce:	19 f4       	brne	.+6      	; 0x4d6 <strncmp+0x18>
 4d0:	00 20       	and	r0, r0
 4d2:	b9 f7       	brne	.-18     	; 0x4c2 <strncmp+0x4>
 4d4:	88 1b       	sub	r24, r24
 4d6:	99 0b       	sbc	r25, r25
 4d8:	08 95       	ret

000004da <itoa>:
 4da:	fb 01       	movw	r30, r22
 4dc:	9f 01       	movw	r18, r30
 4de:	e8 94       	clt
 4e0:	42 30       	cpi	r20, 0x02	; 2
 4e2:	c4 f0       	brlt	.+48     	; 0x514 <itoa+0x3a>
 4e4:	45 32       	cpi	r20, 0x25	; 37
 4e6:	b4 f4       	brge	.+44     	; 0x514 <itoa+0x3a>
 4e8:	4a 30       	cpi	r20, 0x0A	; 10
 4ea:	29 f4       	brne	.+10     	; 0x4f6 <itoa+0x1c>
 4ec:	97 fb       	bst	r25, 7
 4ee:	1e f4       	brtc	.+6      	; 0x4f6 <itoa+0x1c>
 4f0:	90 95       	com	r25
 4f2:	81 95       	neg	r24
 4f4:	9f 4f       	sbci	r25, 0xFF	; 255
 4f6:	64 2f       	mov	r22, r20
 4f8:	77 27       	eor	r23, r23
 4fa:	0e 94 9e 02 	call	0x53c	; 0x53c <__udivmodhi4>
 4fe:	80 5d       	subi	r24, 0xD0	; 208
 500:	8a 33       	cpi	r24, 0x3A	; 58
 502:	0c f0       	brlt	.+2      	; 0x506 <itoa+0x2c>
 504:	89 5d       	subi	r24, 0xD9	; 217
 506:	81 93       	st	Z+, r24
 508:	cb 01       	movw	r24, r22
 50a:	00 97       	sbiw	r24, 0x00	; 0
 50c:	a1 f7       	brne	.-24     	; 0x4f6 <itoa+0x1c>
 50e:	16 f4       	brtc	.+4      	; 0x514 <itoa+0x3a>
 510:	5d e2       	ldi	r21, 0x2D	; 45
 512:	51 93       	st	Z+, r21
 514:	10 82       	st	Z, r1
 516:	c9 01       	movw	r24, r18
 518:	0c 94 8e 02 	jmp	0x51c	; 0x51c <strrev>

0000051c <strrev>:
 51c:	dc 01       	movw	r26, r24
 51e:	fc 01       	movw	r30, r24
 520:	67 2f       	mov	r22, r23
 522:	71 91       	ld	r23, Z+
 524:	77 23       	and	r23, r23
 526:	e1 f7       	brne	.-8      	; 0x520 <strrev+0x4>
 528:	32 97       	sbiw	r30, 0x02	; 2
 52a:	04 c0       	rjmp	.+8      	; 0x534 <strrev+0x18>
 52c:	7c 91       	ld	r23, X
 52e:	6d 93       	st	X+, r22
 530:	70 83       	st	Z, r23
 532:	62 91       	ld	r22, -Z
 534:	ae 17       	cp	r26, r30
 536:	bf 07       	cpc	r27, r31
 538:	c8 f3       	brcs	.-14     	; 0x52c <strrev+0x10>
 53a:	08 95       	ret

0000053c <__udivmodhi4>:
 53c:	aa 1b       	sub	r26, r26
 53e:	bb 1b       	sub	r27, r27
 540:	51 e1       	ldi	r21, 0x11	; 17
 542:	07 c0       	rjmp	.+14     	; 0x552 <__udivmodhi4_ep>

00000544 <__udivmodhi4_loop>:
 544:	aa 1f       	adc	r26, r26
 546:	bb 1f       	adc	r27, r27
 548:	a6 17       	cp	r26, r22
 54a:	b7 07       	cpc	r27, r23
 54c:	10 f0       	brcs	.+4      	; 0x552 <__udivmodhi4_ep>
 54e:	a6 1b       	sub	r26, r22
 550:	b7 0b       	sbc	r27, r23

00000552 <__udivmodhi4_ep>:
 552:	88 1f       	adc	r24, r24
 554:	99 1f       	adc	r25, r25
 556:	5a 95       	dec	r21
 558:	a9 f7       	brne	.-22     	; 0x544 <__udivmodhi4_loop>
 55a:	80 95       	com	r24
 55c:	90 95       	com	r25
 55e:	bc 01       	movw	r22, r24
 560:	cd 01       	movw	r24, r26
 562:	08 95       	ret

00000564 <_exit>:
 564:	f8 94       	cli

00000566 <__stop_program>:
 566:	ff cf       	rjmp	.-2      	; 0x566 <__stop_program>
